target datalayout = "e-m:e-p270:32:32-p271:32:32-p272:64:64-i64:64-i128:128-f80:128-n8:16:32:64-S128"
target triple = "x86_64-pc-linux-gnu"

%struct.SlabContext = type { %struct.MemoryContextData, i32, i32, i32, i32, i32, i32, %struct.dclist_head, [3 x %struct.dlist_head] }
%struct.MemoryContextData = type { i32, i8, i8, i64, ptr, ptr, ptr, ptr, ptr, ptr, ptr, ptr }
%struct.dclist_head = type { %struct.dlist_head, i32 }
%struct.dlist_head = type { %struct.dlist_node }
%struct.dlist_node = type { ptr, ptr }
%struct.SlabBlock = type { ptr, i32, i32, ptr, ptr, %struct.dlist_node }
%struct.MemoryChunk = type { i64 }

; Function Attrs: inlinehint nounwind uwtable
define internal ptr @MemoryChunkGetBlock(ptr noundef %0) #5 {
  %2 = alloca ptr, align 8
  store ptr %0, ptr %2, align 8
  %3 = load ptr, ptr %2, align 8
  %4 = load ptr, ptr %2, align 8
  %5 = getelementptr inbounds nuw %struct.MemoryChunk, ptr %4, i32 0, i32 0
  %6 = load i64, ptr %5, align 8
  %7 = lshr i64 %6, 34
  %8 = and i64 %7, 1073741822
  %9 = sub i64 0, %8
  %10 = getelementptr inbounds i8, ptr %3, i64 %9
  ret ptr %10
}

; Function Attrs: nounwind uwtable
define dso_local ptr @SlabGetChunkContext(ptr noundef %0) #0 {
  %2 = alloca ptr, align 8
  %3 = alloca ptr, align 8
  %4 = alloca ptr, align 8
  store ptr %0, ptr %2, align 8
  call void @llvm.lifetime.start.p0(i64 8, ptr %3) #10
  %5 = load ptr, ptr %2, align 8
  %6 = getelementptr inbounds i8, ptr %5, i64 -8
  store ptr %6, ptr %3, align 8
  call void @llvm.lifetime.start.p0(i64 8, ptr %4) #10
  br label %7

7:                                                ; preds = %1
  br label %8

8:                                                ; preds = %7
  br label %9

9:                                                ; preds = %8
  %10 = load ptr, ptr %3, align 8
  %11 = call ptr @MemoryChunkGetBlock(ptr noundef %10)
  store ptr %11, ptr %4, align 8
  br label %12

12:                                               ; preds = %9
  br label %13

13:                                               ; preds = %12
  br label %14

14:                                               ; preds = %13
  %15 = load ptr, ptr %4, align 8
  %16 = getelementptr inbounds nuw %struct.SlabBlock, ptr %15, i32 0, i32 0
  %17 = load ptr, ptr %16, align 8
  %18 = getelementptr inbounds nuw %struct.SlabContext, ptr %17, i32 0, i32 0
  call void @llvm.lifetime.end.p0(i64 8, ptr %4) #10
  call void @llvm.lifetime.end.p0(i64 8, ptr %3) #10
  ret ptr %18
}