; Function Attrs: mustprogress nofree norecurse nosync nounwind willreturn memory(argmem: read) uwtable
define dso_local ptr @SlabGetChunkContext(ptr noundef readonly captures(none) %0) local_unnamed_addr #8 {
  %2 = getelementptr inbounds i8, ptr %0, i64 -8
  %3 = load i64, ptr %2, align 8
  %4 = lshr i64 %3, 34
  %5 = and i64 %4, 1073741822
  %6 = sub nsw i64 0, %5
  %7 = getelementptr inbounds i8, ptr %2, i64 %6
  %8 = load ptr, ptr %7, align 8
  ret ptr %8
}